; Function Attrs: nounwind uwtable
define noalias noundef ptr @Abc_NtkNodeSupportInt(ptr noundef captures(none) %0, i32 noundef %1) local_unnamed_addr #0 {
  %3 = icmp slt i32 %1, 0
  br i1 %3, label %53, label %4

4:                                                ; preds = %2
  %5 = getelementptr i8, ptr %0, i64 64
  %.val20 = load ptr, ptr %5, align 8, !tbaa !48
  %6 = getelementptr i8, ptr %.val20, i64 4
  %.val20.val = load i32, ptr %6, align 4, !tbaa !41
  %.not = icmp slt i32 %1, %.val20.val
  br i1 %.not, label %.preheader, label %53

.preheader:                                       ; preds = %4
  %7 = getelementptr i8, ptr %0, i64 56
  %.val2226 = load ptr, ptr %7, align 8, !tbaa !57
  %8 = getelementptr i8, ptr %.val2226, i64 4
  %.val22.val27 = load i32, ptr %8, align 4, !tbaa !41
  %9 = icmp sgt i32 %.val22.val27, 0
  br i1 %9, label %.lr.ph, label %.critedge

.lr.ph:                                           ; preds = %.preheader, %.lr.ph
  %indvars.iv = phi i64 [ %indvars.iv.next, %.lr.ph ], [ 0, %.preheader ]
  %.val2229 = phi ptr [ %.val22, %.lr.ph ], [ %.val2226, %.preheader ]
  %10 = getelementptr i8, ptr %.val2229, i64 8
  %.val23.val = load ptr, ptr %10, align 8, !tbaa !36
  %11 = getelementptr inbounds nuw ptr, ptr %.val23.val, i64 %indvars.iv
  %12 = load ptr, ptr %11, align 8, !tbaa !38
  %13 = getelementptr inbounds nuw i8, ptr %12, i64 64
  %14 = trunc nuw nsw i64 %indvars.iv to i32
  store i32 %14, ptr %13, align 8, !tbaa !46
  %indvars.iv.next = add nuw nsw i64 %indvars.iv, 1
  %.val22 = load ptr, ptr %7, align 8, !tbaa !57
  %15 = getelementptr i8, ptr %.val22, i64 4
  %.val22.val = load i32, ptr %15, align 4, !tbaa !41
  %16 = sext i32 %.val22.val to i64
  %17 = icmp slt i64 %indvars.iv.next, %16
  br i1 %17, label %.lr.ph, label %.critedge, !llvm.loop !108

.critedge:                                        ; preds = %.lr.ph, %.preheader
  %18 = getelementptr inbounds nuw i8, ptr %0, i64 232
  %19 = load ptr, ptr %18, align 8, !tbaa !43
  %.not.i = icmp eq ptr %19, null
  br i1 %.not.i, label %20, label %Abc_NtkIncrementTravId.exit

20:                                               ; preds = %.critedge
  %21 = getelementptr inbounds nuw i8, ptr %0, i64 224
  %22 = getelementptr i8, ptr %0, i64 32
  %.val.i = load ptr, ptr %22, align 8, !tbaa !35
  %23 = getelementptr i8, ptr %.val.i, i64 4
  %.val.val.i = load i32, ptr %23, align 4, !tbaa !41
  %24 = add nsw i32 %.val.val.i, 500
  %25 = load i32, ptr %21, align 8, !tbaa !29
  %.not.i.i.i = icmp slt i32 %25, %24
  br i1 %.not.i.i.i, label %26, label %Vec_IntGrow.exit.i.i

26:                                               ; preds = %20
  %27 = sext i32 %24 to i64
  %28 = shl nsw i64 %27, 2
  %29 = tail call noalias ptr @malloc(i64 noundef %28) #22
  store ptr %29, ptr %18, align 8, !tbaa !30
  store i32 %24, ptr %21, align 8, !tbaa !29
  br label %Vec_IntGrow.exit.i.i

Vec_IntGrow.exit.i.i:                             ; preds = %26, %20
  %30 = phi ptr [ %29, %26 ], [ null, %20 ]
  %31 = icmp sgt i32 %.val.val.i, -500
  br i1 %31, label %.lr.ph.i.i, label %Vec_IntFill.exit.i

.lr.ph.i.i:                                       ; preds = %Vec_IntGrow.exit.i.i
  %32 = zext nneg i32 %24 to i64
  %33 = shl nuw nsw i64 %32, 2
  tail call void @llvm.memset.p0.i64(ptr align 4 %30, i8 0, i64 %33, i1 false), !tbaa !31
  br label %Vec_IntFill.exit.i

Vec_IntFill.exit.i:                               ; preds = %.lr.ph.i.i, %Vec_IntGrow.exit.i.i
  %34 = getelementptr inbounds nuw i8, ptr %0, i64 228
  store i32 %24, ptr %34, align 4, !tbaa !28
  br label %Abc_NtkIncrementTravId.exit

Abc_NtkIncrementTravId.exit:                      ; preds = %.critedge, %Vec_IntFill.exit.i
  %35 = getelementptr inbounds nuw i8, ptr %0, i64 216
  %36 = load i32, ptr %35, align 8, !tbaa !14
  %37 = add nsw i32 %36, 1
  store i32 %37, ptr %35, align 8, !tbaa !14
  %.val21 = load ptr, ptr %5, align 8, !tbaa !48
  %38 = getelementptr i8, ptr %.val21, i64 8
  %.val21.val = load ptr, ptr %38, align 8, !tbaa !36
  %39 = zext nneg i32 %1 to i64
  %40 = getelementptr inbounds nuw ptr, ptr %.val21.val, i64 %39
  %41 = load ptr, ptr %40, align 8, !tbaa !38
  %42 = tail call noalias dereferenceable_or_null(16) ptr @malloc(i64 noundef 16) #22
  %43 = getelementptr inbounds nuw i8, ptr %42, i64 4
  store i32 0, ptr %43, align 4, !tbaa !28
  store i32 100, ptr %42, align 8, !tbaa !29
  %44 = tail call noalias dereferenceable_or_null(400) ptr @malloc(i64 noundef 400) #22
  %45 = getelementptr inbounds nuw i8, ptr %42, i64 8
  store ptr %44, ptr %45, align 8, !tbaa !30
  %.val = load ptr, ptr %41, align 8, !tbaa !3
  %46 = getelementptr i8, ptr %41, i64 32
  %.val19 = load ptr, ptr %46, align 8, !tbaa !34
  %47 = getelementptr i8, ptr %.val, i64 32
  %.val.val = load ptr, ptr %47, align 8, !tbaa !35
  %.val19.val = load i32, ptr %.val19, align 4, !tbaa !31
  %48 = getelementptr i8, ptr %.val.val, i64 8
  %.val.val.val = load ptr, ptr %48, align 8, !tbaa !36
  %49 = sext i32 %.val19.val to i64
  %50 = getelementptr inbounds ptr, ptr %.val.val.val, i64 %49
  %51 = load ptr, ptr %50, align 8, !tbaa !38
  tail call void @Abc_NtkNodeSupportInt_rec(ptr noundef %51, ptr noundef nonnull %42)
  %.val24 = load i32, ptr %43, align 4, !tbaa !28
  %.val25 = load ptr, ptr %45, align 8, !tbaa !30
  %52 = sext i32 %.val24 to i64
  tail call void @qsort(ptr noundef %.val25, i64 noundef %52, i64 noundef 4, ptr noundef nonnull @Vec_IntSortCompare1) #23
  br label %53

53:                                               ; preds = %2, %4, %Abc_NtkIncrementTravId.exit
  %.017 = phi ptr [ %42, %Abc_NtkIncrementTravId.exit ], [ null, %4 ], [ null, %2 ]
  ret ptr %.017
}